; ModuleID = 'source-C-CXX/11/1440.cpp'
source_filename = "source-C-CXX/11/1440.cpp"
target datalayout = "e-m:e-p270:32:32-p271:32:32-p272:64:64-i64:64-f80:128-n8:16:32:64-S128"
target triple = "x86_64-pc-linux-gnu"

%"class.std::ios_base::Init" = type { i8 }
%"class.std::basic_istream" = type { i32 (...)**, i64, %"class.std::basic_ios" }
%"class.std::basic_ios" = type { %"class.std::ios_base", %"class.std::basic_ostream"*, i8, i8, %"class.std::basic_streambuf"*, %"class.std::ctype"*, %"class.std::num_put"*, %"class.std::num_get"* }
%"class.std::ios_base" = type { i32 (...)**, i64, i64, i32, i32, i32, %"struct.std::ios_base::_Callback_list"*, %"struct.std::ios_base::_Words", [8 x %"struct.std::ios_base::_Words"], i32, %"struct.std::ios_base::_Words"*, %"class.std::locale" }
%"struct.std::ios_base::_Callback_list" = type { %"struct.std::ios_base::_Callback_list"*, void (i32, %"class.std::ios_base"*, i32)*, i32, i32 }
%"struct.std::ios_base::_Words" = type { i8*, i64 }
%"class.std::locale" = type { %"class.std::locale::_Impl"* }
%"class.std::locale::_Impl" = type { i32, %"class.std::locale::facet"**, i64, %"class.std::locale::facet"**, i8** }
%"class.std::locale::facet" = type <{ i32 (...)**, i32, [4 x i8] }>
%"class.std::basic_ostream" = type { i32 (...)**, %"class.std::basic_ios" }
%"class.std::basic_streambuf" = type { i32 (...)**, i8*, i8*, i8*, i8*, i8*, i8*, %"class.std::locale" }
%"class.std::ctype" = type <{ %"class.std::locale::facet.base", [4 x i8], %struct.__locale_struct*, i8, [7 x i8], i32*, i32*, i16*, i8, [256 x i8], [256 x i8], i8, [6 x i8] }>
%"class.std::locale::facet.base" = type <{ i32 (...)**, i32 }>
%struct.__locale_struct = type { [13 x %struct.__locale_data*], i16*, i32*, i32*, [13 x i8*] }
%struct.__locale_data = type opaque
%"class.std::num_put" = type { %"class.std::locale::facet.base", [4 x i8] }
%"class.std::num_get" = type { %"class.std::locale::facet.base", [4 x i8] }

@_ZStL8__ioinit = internal global %"class.std::ios_base::Init" zeroinitializer, align 1
@__dso_handle = external hidden global i8
@_ZSt3cin = external global %"class.std::basic_istream", align 8
@_ZSt4cout = external global %"class.std::basic_ostream", align 8
@llvm.global_ctors = appending global [1 x { i32, void ()*, i8* }] [{ i32, void ()*, i8* } { i32 65535, void ()* @_GLOBAL__sub_I_1440.cpp, i8* null }]

declare void @_ZNSt8ios_base4InitC1Ev(%"class.std::ios_base::Init"* nonnull align 1 dereferenceable(1)) unnamed_addr #0

; Function Attrs: nounwind
declare void @_ZNSt8ios_base4InitD1Ev(%"class.std::ios_base::Init"* nonnull align 1 dereferenceable(1)) unnamed_addr #1

; Function Attrs: nofree nounwind
declare i32 @__cxa_atexit(void (i8*)*, i8*, i8*) local_unnamed_addr #2

; Function Attrs: mustprogress norecurse sspstrong uwtable
define dso_local i32 @main() local_unnamed_addr #3 {
  %1 = alloca i32, align 4
  %2 = alloca [16 x i32], align 16
  %3 = bitcast i32* %1 to i8*
  call void @llvm.lifetime.start.p0i8(i64 4, i8* nonnull %3) #8
  %4 = bitcast [16 x i32]* %2 to i8*
  call void @llvm.lifetime.start.p0i8(i64 64, i8* nonnull %4) #8
  %5 = call nonnull align 8 dereferenceable(16) %"class.std::basic_istream"* @_ZNSirsERi(%"class.std::basic_istream"* nonnull align 8 dereferenceable(16) @_ZSt3cin, i32* nonnull align 4 dereferenceable(4) %1)
  %6 = load i32, i32* %1, align 4, !tbaa !5
  %7 = icmp eq i32 %6, -1
  br i1 %7, label %166, label %8

8:                                                ; preds = %0, %160
  %9 = phi i32 [ %164, %160 ], [ %6, %0 ]
  %10 = phi i32 [ %162, %160 ], [ 0, %0 ]
  %11 = phi i32 [ %161, %160 ], [ 1, %0 ]
  %12 = sext i32 %11 to i64
  %13 = getelementptr inbounds [16 x i32], [16 x i32]* %2, i64 0, i64 %12
  store i32 %9, i32* %13, align 4, !tbaa !5
  %14 = add nsw i32 %11, 1
  %15 = icmp eq i32 %9, 0
  br i1 %15, label %16, label %160

16:                                               ; preds = %8
  %17 = icmp slt i32 %10, 1
  br i1 %17, label %127, label %18

18:                                               ; preds = %16
  %19 = add nuw i32 %10, 1
  %20 = zext i32 %19 to i64
  %21 = add nsw i64 %20, -1
  %22 = add nsw i64 %20, -9
  %23 = lshr i64 %22, 3
  %24 = add nuw nsw i64 %23, 1
  %25 = icmp ult i64 %21, 8
  %26 = and i64 %21, -8
  %27 = or i64 %26, 1
  %28 = and i64 %24, 1
  %29 = icmp ult i64 %22, 8
  %30 = and i64 %24, 4611686018427387902
  %31 = icmp eq i64 %28, 0
  %32 = icmp eq i64 %21, %26
  br label %33

33:                                               ; preds = %18, %123
  %34 = phi i64 [ 1, %18 ], [ %125, %123 ]
  %35 = phi i32 [ 0, %18 ], [ %124, %123 ]
  %36 = getelementptr inbounds [16 x i32], [16 x i32]* %2, i64 0, i64 %34
  %37 = load i32, i32* %36, align 4, !tbaa !5
  br i1 %25, label %109, label %38

38:                                               ; preds = %33
  %39 = insertelement <4 x i32> <i32 poison, i32 0, i32 0, i32 0>, i32 %35, i32 0
  %40 = insertelement <4 x i32> poison, i32 %37, i32 0
  %41 = shufflevector <4 x i32> %40, <4 x i32> poison, <4 x i32> zeroinitializer
  %42 = insertelement <4 x i32> poison, i32 %37, i32 0
  %43 = shufflevector <4 x i32> %42, <4 x i32> poison, <4 x i32> zeroinitializer
  br i1 %29, label %82, label %44

44:                                               ; preds = %38, %44
  %45 = phi i64 [ %79, %44 ], [ 0, %38 ]
  %46 = phi <4 x i32> [ %77, %44 ], [ %39, %38 ]
  %47 = phi <4 x i32> [ %78, %44 ], [ zeroinitializer, %38 ]
  %48 = phi i64 [ %80, %44 ], [ %30, %38 ]
  %49 = or i64 %45, 1
  %50 = getelementptr inbounds [16 x i32], [16 x i32]* %2, i64 0, i64 %49
  %51 = bitcast i32* %50 to <4 x i32>*
  %52 = load <4 x i32>, <4 x i32>* %51, align 4, !tbaa !5
  %53 = getelementptr inbounds i32, i32* %50, i64 4
  %54 = bitcast i32* %53 to <4 x i32>*
  %55 = load <4 x i32>, <4 x i32>* %54, align 4, !tbaa !5
  %56 = shl nsw <4 x i32> %52, <i32 1, i32 1, i32 1, i32 1>
  %57 = shl nsw <4 x i32> %55, <i32 1, i32 1, i32 1, i32 1>
  %58 = icmp eq <4 x i32> %41, %56
  %59 = icmp eq <4 x i32> %43, %57
  %60 = zext <4 x i1> %58 to <4 x i32>
  %61 = zext <4 x i1> %59 to <4 x i32>
  %62 = add <4 x i32> %46, %60
  %63 = add <4 x i32> %47, %61
  %64 = or i64 %45, 9
  %65 = getelementptr inbounds [16 x i32], [16 x i32]* %2, i64 0, i64 %64
  %66 = bitcast i32* %65 to <4 x i32>*
  %67 = load <4 x i32>, <4 x i32>* %66, align 4, !tbaa !5
  %68 = getelementptr inbounds i32, i32* %65, i64 4
  %69 = bitcast i32* %68 to <4 x i32>*
  %70 = load <4 x i32>, <4 x i32>* %69, align 4, !tbaa !5
  %71 = shl nsw <4 x i32> %67, <i32 1, i32 1, i32 1, i32 1>
  %72 = shl nsw <4 x i32> %70, <i32 1, i32 1, i32 1, i32 1>
  %73 = icmp eq <4 x i32> %41, %71
  %74 = icmp eq <4 x i32> %43, %72
  %75 = zext <4 x i1> %73 to <4 x i32>
  %76 = zext <4 x i1> %74 to <4 x i32>
  %77 = add <4 x i32> %62, %75
  %78 = add <4 x i32> %63, %76
  %79 = add nuw i64 %45, 16
  %80 = add i64 %48, -2
  %81 = icmp eq i64 %80, 0
  br i1 %81, label %82, label %44, !llvm.loop !9

82:                                               ; preds = %44, %38
  %83 = phi <4 x i32> [ undef, %38 ], [ %77, %44 ]
  %84 = phi <4 x i32> [ undef, %38 ], [ %78, %44 ]
  %85 = phi i64 [ 0, %38 ], [ %79, %44 ]
  %86 = phi <4 x i32> [ %39, %38 ], [ %77, %44 ]
  %87 = phi <4 x i32> [ zeroinitializer, %38 ], [ %78, %44 ]
  br i1 %31, label %104, label %88

88:                                               ; preds = %82
  %89 = or i64 %85, 1
  %90 = getelementptr inbounds [16 x i32], [16 x i32]* %2, i64 0, i64 %89
  %91 = getelementptr inbounds i32, i32* %90, i64 4
  %92 = bitcast i32* %91 to <4 x i32>*
  %93 = load <4 x i32>, <4 x i32>* %92, align 4, !tbaa !5
  %94 = shl nsw <4 x i32> %93, <i32 1, i32 1, i32 1, i32 1>
  %95 = icmp eq <4 x i32> %43, %94
  %96 = zext <4 x i1> %95 to <4 x i32>
  %97 = add <4 x i32> %87, %96
  %98 = bitcast i32* %90 to <4 x i32>*
  %99 = load <4 x i32>, <4 x i32>* %98, align 4, !tbaa !5
  %100 = shl nsw <4 x i32> %99, <i32 1, i32 1, i32 1, i32 1>
  %101 = icmp eq <4 x i32> %41, %100
  %102 = zext <4 x i1> %101 to <4 x i32>
  %103 = add <4 x i32> %86, %102
  br label %104

104:                                              ; preds = %82, %88
  %105 = phi <4 x i32> [ %83, %82 ], [ %103, %88 ]
  %106 = phi <4 x i32> [ %84, %82 ], [ %97, %88 ]
  %107 = add <4 x i32> %106, %105
  %108 = call i32 @llvm.vector.reduce.add.v4i32(<4 x i32> %107)
  br i1 %32, label %123, label %109

109:                                              ; preds = %33, %104
  %110 = phi i64 [ 1, %33 ], [ %27, %104 ]
  %111 = phi i32 [ %35, %33 ], [ %108, %104 ]
  br label %112

112:                                              ; preds = %109, %112
  %113 = phi i64 [ %121, %112 ], [ %110, %109 ]
  %114 = phi i32 [ %120, %112 ], [ %111, %109 ]
  %115 = getelementptr inbounds [16 x i32], [16 x i32]* %2, i64 0, i64 %113
  %116 = load i32, i32* %115, align 4, !tbaa !5
  %117 = shl nsw i32 %116, 1
  %118 = icmp eq i32 %37, %117
  %119 = zext i1 %118 to i32
  %120 = add nsw i32 %114, %119
  %121 = add nuw nsw i64 %113, 1
  %122 = icmp eq i64 %121, %20
  br i1 %122, label %123, label %112, !llvm.loop !12

123:                                              ; preds = %112, %104
  %124 = phi i32 [ %108, %104 ], [ %120, %112 ]
  %125 = add nuw nsw i64 %34, 1
  %126 = icmp eq i64 %125, %20
  br i1 %126, label %127, label %33, !llvm.loop !14

127:                                              ; preds = %123, %16
  %128 = phi i32 [ 0, %16 ], [ %124, %123 ]
  %129 = add nsw i32 %128, -1
  %130 = call nonnull align 8 dereferenceable(8) %"class.std::basic_ostream"* @_ZNSolsEi(%"class.std::basic_ostream"* nonnull align 8 dereferenceable(8) @_ZSt4cout, i32 %129)
  %131 = bitcast %"class.std::basic_ostream"* %130 to i8**
  %132 = load i8*, i8** %131, align 8, !tbaa !15
  %133 = getelementptr i8, i8* %132, i64 -24
  %134 = bitcast i8* %133 to i64*
  %135 = load i64, i64* %134, align 8
  %136 = bitcast %"class.std::basic_ostream"* %130 to i8*
  %137 = add nsw i64 %135, 240
  %138 = getelementptr inbounds i8, i8* %136, i64 %137
  %139 = bitcast i8* %138 to %"class.std::ctype"**
  %140 = load %"class.std::ctype"*, %"class.std::ctype"** %139, align 8, !tbaa !17
  %141 = icmp eq %"class.std::ctype"* %140, null
  br i1 %141, label %142, label %143

142:                                              ; preds = %127
  call void @_ZSt16__throw_bad_castv() #9
  unreachable

143:                                              ; preds = %127
  %144 = getelementptr inbounds %"class.std::ctype", %"class.std::ctype"* %140, i64 0, i32 8
  %145 = load i8, i8* %144, align 8, !tbaa !21
  %146 = icmp eq i8 %145, 0
  br i1 %146, label %150, label %147

147:                                              ; preds = %143
  %148 = getelementptr inbounds %"class.std::ctype", %"class.std::ctype"* %140, i64 0, i32 9, i64 10
  %149 = load i8, i8* %148, align 1, !tbaa !23
  br label %156

150:                                              ; preds = %143
  call void @_ZNKSt5ctypeIcE13_M_widen_initEv(%"class.std::ctype"* nonnull align 8 dereferenceable(570) %140)
  %151 = bitcast %"class.std::ctype"* %140 to i8 (%"class.std::ctype"*, i8)***
  %152 = load i8 (%"class.std::ctype"*, i8)**, i8 (%"class.std::ctype"*, i8)*** %151, align 8, !tbaa !15
  %153 = getelementptr inbounds i8 (%"class.std::ctype"*, i8)*, i8 (%"class.std::ctype"*, i8)** %152, i64 6
  %154 = load i8 (%"class.std::ctype"*, i8)*, i8 (%"class.std::ctype"*, i8)** %153, align 8
  %155 = call signext i8 %154(%"class.std::ctype"* nonnull align 8 dereferenceable(570) %140, i8 signext 10)
  br label %156

156:                                              ; preds = %147, %150
  %157 = phi i8 [ %149, %147 ], [ %155, %150 ]
  %158 = call nonnull align 8 dereferenceable(8) %"class.std::basic_ostream"* @_ZNSo3putEc(%"class.std::basic_ostream"* nonnull align 8 dereferenceable(8) %130, i8 signext %157)
  %159 = call nonnull align 8 dereferenceable(8) %"class.std::basic_ostream"* @_ZNSo5flushEv(%"class.std::basic_ostream"* nonnull align 8 dereferenceable(8) %158)
  br label %160

160:                                              ; preds = %8, %156
  %161 = phi i32 [ 1, %156 ], [ %14, %8 ]
  %162 = phi i32 [ %10, %156 ], [ %14, %8 ]
  %163 = call nonnull align 8 dereferenceable(16) %"class.std::basic_istream"* @_ZNSirsERi(%"class.std::basic_istream"* nonnull align 8 dereferenceable(16) @_ZSt3cin, i32* nonnull align 4 dereferenceable(4) %1)
  %164 = load i32, i32* %1, align 4, !tbaa !5
  %165 = icmp eq i32 %164, -1
  br i1 %165, label %166, label %8, !llvm.loop !24

166:                                              ; preds = %160, %0
  call void @llvm.lifetime.end.p0i8(i64 64, i8* nonnull %4) #8
  call void @llvm.lifetime.end.p0i8(i64 4, i8* nonnull %3) #8
  ret i32 0
}

; Function Attrs: argmemonly mustprogress nofree nosync nounwind willreturn
declare void @llvm.lifetime.start.p0i8(i64 immarg, i8* nocapture) #4

declare nonnull align 8 dereferenceable(16) %"class.std::basic_istream"* @_ZNSirsERi(%"class.std::basic_istream"* nonnull align 8 dereferenceable(16), i32* nonnull align 4 dereferenceable(4)) local_unnamed_addr #0

declare nonnull align 8 dereferenceable(8) %"class.std::basic_ostream"* @_ZNSolsEi(%"class.std::basic_ostream"* nonnull align 8 dereferenceable(8), i32) local_unnamed_addr #0

; Function Attrs: argmemonly mustprogress nofree nosync nounwind willreturn
declare void @llvm.lifetime.end.p0i8(i64 immarg, i8* nocapture) #4

declare nonnull align 8 dereferenceable(8) %"class.std::basic_ostream"* @_ZNSo3putEc(%"class.std::basic_ostream"* nonnull align 8 dereferenceable(8), i8 signext) local_unnamed_addr #0

declare nonnull align 8 dereferenceable(8) %"class.std::basic_ostream"* @_ZNSo5flushEv(%"class.std::basic_ostream"* nonnull align 8 dereferenceable(8)) local_unnamed_addr #0

; Function Attrs: noreturn
declare void @_ZSt16__throw_bad_castv() local_unnamed_addr #5

declare void @_ZNKSt5ctypeIcE13_M_widen_initEv(%"class.std::ctype"* nonnull align 8 dereferenceable(570)) local_unnamed_addr #0

; Function Attrs: sspstrong uwtable
define internal void @_GLOBAL__sub_I_1440.cpp() #6 section ".text.startup" {
  tail call void @_ZNSt8ios_base4InitC1Ev(%"class.std::ios_base::Init"* nonnull align 1 dereferenceable(1) @_ZStL8__ioinit)
  %1 = tail call i32 @__cxa_atexit(void (i8*)* bitcast (void (%"class.std::ios_base::Init"*)* @_ZNSt8ios_base4InitD1Ev to void (i8*)*), i8* getelementptr inbounds (%"class.std::ios_base::Init", %"class.std::ios_base::Init"* @_ZStL8__ioinit, i64 0, i32 0), i8* nonnull @__dso_handle) #8
  ret void
}

; Function Attrs: nofree nosync nounwind readnone willreturn
declare i32 @llvm.vector.reduce.add.v4i32(<4 x i32>) #7


!llvm.module.flags = !{!0, !1, !2, !3}
!llvm.ident = !{!4}

!0 = !{i32 1, !"wchar_size", i32 4}
!1 = !{i32 7, !"PIC Level", i32 2}
!2 = !{i32 7, !"PIE Level", i32 2}
!3 = !{i32 7, !"uwtable", i32 1}
!4 = !{!"clang version 13.0.0"}
!5 = !{!6, !6, i64 0}
!6 = !{!"int", !7, i64 0}
!7 = !{!"omnipotent char", !8, i64 0}
!8 = !{!"Simple C++ TBAA"}
!9 = distinct !{!9, !10, !11}
!10 = !{!"llvm.loop.mustprogress"}
!11 = !{!"llvm.loop.isvectorized", i32 1}
!12 = distinct !{!12, !10, !13, !11}
!13 = !{!"llvm.loop.unroll.runtime.disable"}
!14 = distinct !{!14, !10}
!15 = !{!16, !16, i64 0}
!16 = !{!"vtable pointer", !8, i64 0}
!17 = !{!18, !19, i64 240}
!18 = !{!"_ZTSSt9basic_iosIcSt11char_traitsIcEE", !19, i64 216, !7, i64 224, !20, i64 225, !19, i64 232, !19, i64 240, !19, i64 248, !19, i64 256}
!19 = !{!"any pointer", !7, i64 0}
!20 = !{!"bool", !7, i64 0}
!21 = !{!22, !7, i64 56}
!22 = !{!"_ZTSSt5ctypeIcE", !19, i64 16, !20, i64 24, !19, i64 32, !19, i64 40, !19, i64 48, !7, i64 56, !7, i64 57, !7, i64 313, !7, i64 569}
!23 = !{!7, !7, i64 0}
!24 = distinct !{!24, !10}
